target datalayout = "e-m:e-p270:32:32-p271:32:32-p272:64:64-i64:64-i128:128-f80:128-n8:16:32:64-S128"
target triple = "x86_64-pc-linux-gnu"

%struct.exr_attr_box2i_t = type { %struct.exr_attr_v2i_t, %struct.exr_attr_v2i_t }
%struct.exr_attr_v2i_t = type { i32, i32 }
%struct._priv_exr_part_t = type { i32, i32, %struct.exr_attribute_list, ptr, ptr, ptr, ptr, ptr, ptr, ptr, ptr, ptr, ptr, ptr, ptr, ptr, ptr, %struct.exr_attr_box2i_t, %struct.exr_attr_box2i_t, i32, i32, i32, float, i32, i32, ptr, ptr, ptr, ptr, i64, i16, i16, i32, i64, i64 }
%struct.exr_attribute_list = type { i32, i32, ptr, ptr }
%struct._priv_exr_context_t = type { i8, i8, i8, i8, i8, i8, i8, i8, %struct.exr_attr_string_t, %struct.exr_attr_string_t, ptr, ptr, ptr, ptr, ptr, ptr, ptr, ptr, i32, i32, i32, i32, i32, float, ptr, ptr, ptr, i64, ptr, ptr, i64, i32, i32, i32, i32, %struct._priv_exr_part_t, ptr, ptr, %struct.exr_attribute_list, %union.pthread_mutex_t, i8, i8, [2 x i8], i32 }
%struct.exr_attr_string_t = type { i32, i32, ptr }
%union.pthread_mutex_t = type { %struct.__pthread_mutex_s }
%struct.__pthread_mutex_s = type { i32, i32, i32, i32, i32, i16, i16, %struct.__pthread_internal_list }
%struct.__pthread_internal_list = type { ptr, ptr }
%struct._internal_exr_seq_scratch = type { ptr, i64, i64, i64, ptr, ptr, ptr }

@.str.14 = private unnamed_addr constant [38 x i8] c"End of file attempting to read header\00", align 1

; Function Attrs: nounwind uwtable
define internal i32 @scratch_seq_skip(ptr noundef %0, i32 noundef %1) #0 {
  %3 = alloca ptr, align 8
  %4 = alloca i32, align 4
  %5 = alloca i64, align 8
  %6 = alloca i64, align 8
  %7 = alloca i32, align 4
  %8 = alloca i64, align 8
  %9 = alloca i64, align 8
  %10 = alloca i64, align 8
  %11 = alloca i32, align 4
  store ptr %0, ptr %3, align 8, !tbaa !95
  store i32 %1, ptr %4, align 4, !tbaa !10
  call void @llvm.lifetime.start.p0(i64 8, ptr %5) #7
  store i64 0, ptr %5, align 8, !tbaa !38
  call void @llvm.lifetime.start.p0(i64 8, ptr %6) #7
  %12 = load i32, ptr %4, align 4, !tbaa !10
  %13 = sext i32 %12 to i64
  store i64 %13, ptr %6, align 8, !tbaa !38
  call void @llvm.lifetime.start.p0(i64 4, ptr %7) #7
  store i32 -1, ptr %7, align 4, !tbaa !10
  br label %14

14:                                               ; preds = %90, %2
  %15 = load i64, ptr %6, align 8, !tbaa !38
  %16 = icmp ugt i64 %15, 0
  br i1 %16, label %17, label %91

17:                                               ; preds = %14
  %18 = load ptr, ptr %3, align 8, !tbaa !95
  %19 = getelementptr inbounds nuw %struct._internal_exr_seq_scratch, ptr %18, i32 0, i32 2
  %20 = load i64, ptr %19, align 8, !tbaa !98
  %21 = icmp sgt i64 %20, 0
  br i1 %21, label %22, label %49

22:                                               ; preds = %17
  call void @llvm.lifetime.start.p0(i64 8, ptr %8) #7
  %23 = load ptr, ptr %3, align 8, !tbaa !95
  %24 = getelementptr inbounds nuw %struct._internal_exr_seq_scratch, ptr %23, i32 0, i32 2
  %25 = load i64, ptr %24, align 8, !tbaa !98
  store i64 %25, ptr %8, align 8, !tbaa !38
  call void @llvm.lifetime.start.p0(i64 8, ptr %9) #7
  %26 = load i64, ptr %6, align 8, !tbaa !38
  store i64 %26, ptr %9, align 8, !tbaa !38
  %27 = load i64, ptr %9, align 8, !tbaa !38
  %28 = load i64, ptr %8, align 8, !tbaa !38
  %29 = icmp ugt i64 %27, %28
  br i1 %29, label %30, label %32

30:                                               ; preds = %22
  %31 = load i64, ptr %8, align 8, !tbaa !38
  store i64 %31, ptr %9, align 8, !tbaa !38
  br label %32

32:                                               ; preds = %30, %22
  %33 = load i64, ptr %9, align 8, !tbaa !38
  %34 = load ptr, ptr %3, align 8, !tbaa !95
  %35 = getelementptr inbounds nuw %struct._internal_exr_seq_scratch, ptr %34, i32 0, i32 1
  %36 = load i64, ptr %35, align 8, !tbaa !97
  %37 = add i64 %36, %33
  store i64 %37, ptr %35, align 8, !tbaa !97
  %38 = load i64, ptr %9, align 8, !tbaa !38
  %39 = load ptr, ptr %3, align 8, !tbaa !95
  %40 = getelementptr inbounds nuw %struct._internal_exr_seq_scratch, ptr %39, i32 0, i32 2
  %41 = load i64, ptr %40, align 8, !tbaa !98
  %42 = sub nsw i64 %41, %38
  store i64 %42, ptr %40, align 8, !tbaa !98
  %43 = load i64, ptr %9, align 8, !tbaa !38
  %44 = load i64, ptr %6, align 8, !tbaa !38
  %45 = sub i64 %44, %43
  store i64 %45, ptr %6, align 8, !tbaa !38
  %46 = load i64, ptr %9, align 8, !tbaa !38
  %47 = load i64, ptr %5, align 8, !tbaa !38
  %48 = add i64 %47, %46
  store i64 %48, ptr %5, align 8, !tbaa !38
  call void @llvm.lifetime.end.p0(i64 8, ptr %9) #7
  call void @llvm.lifetime.end.p0(i64 8, ptr %8) #7
  br label %90

49:                                               ; preds = %17
  call void @llvm.lifetime.start.p0(i64 8, ptr %10) #7
  store i64 0, ptr %10, align 8, !tbaa !38
  %50 = load ptr, ptr %3, align 8, !tbaa !95
  %51 = getelementptr inbounds nuw %struct._internal_exr_seq_scratch, ptr %50, i32 0, i32 6
  %52 = load ptr, ptr %51, align 8, !tbaa !101
  %53 = getelementptr inbounds nuw %struct._priv_exr_context_t, ptr %52, i32 0, i32 10
  %54 = load ptr, ptr %53, align 8, !tbaa !77
  %55 = load ptr, ptr %3, align 8, !tbaa !95
  %56 = getelementptr inbounds nuw %struct._internal_exr_seq_scratch, ptr %55, i32 0, i32 6
  %57 = load ptr, ptr %56, align 8, !tbaa !101
  %58 = load ptr, ptr %3, align 8, !tbaa !95
  %59 = getelementptr inbounds nuw %struct._internal_exr_seq_scratch, ptr %58, i32 0, i32 0
  %60 = load ptr, ptr %59, align 8, !tbaa !102
  %61 = load ptr, ptr %3, align 8, !tbaa !95
  %62 = getelementptr inbounds nuw %struct._internal_exr_seq_scratch, ptr %61, i32 0, i32 3
  %63 = call i32 %54(ptr noundef %57, ptr noundef %60, i64 noundef 4096, ptr noundef %62, ptr noundef %10, i32 noundef 1)
  store i32 %63, ptr %7, align 4, !tbaa !10
  %64 = load i64, ptr %10, align 8, !tbaa !38
  %65 = icmp sgt i64 %64, 0
  br i1 %65, label %66, label %72

66:                                               ; preds = %49
  %67 = load i64, ptr %10, align 8, !tbaa !38
  %68 = load ptr, ptr %3, align 8, !tbaa !95
  %69 = getelementptr inbounds nuw %struct._internal_exr_seq_scratch, ptr %68, i32 0, i32 2
  store i64 %67, ptr %69, align 8, !tbaa !98
  %70 = load ptr, ptr %3, align 8, !tbaa !95
  %71 = getelementptr inbounds nuw %struct._internal_exr_seq_scratch, ptr %70, i32 0, i32 1
  store i64 0, ptr %71, align 8, !tbaa !97
  br label %86

72:                                               ; preds = %49
  %73 = load i64, ptr %10, align 8, !tbaa !38
  %74 = icmp eq i64 %73, 0
  br i1 %74, label %75, label %85

75:                                               ; preds = %72
  %76 = load ptr, ptr %3, align 8, !tbaa !95
  %77 = getelementptr inbounds nuw %struct._internal_exr_seq_scratch, ptr %76, i32 0, i32 6
  %78 = load ptr, ptr %77, align 8, !tbaa !101
  %79 = getelementptr inbounds nuw %struct._priv_exr_context_t, ptr %78, i32 0, i32 13
  %80 = load ptr, ptr %79, align 8, !tbaa !78
  %81 = load ptr, ptr %3, align 8, !tbaa !95
  %82 = getelementptr inbounds nuw %struct._internal_exr_seq_scratch, ptr %81, i32 0, i32 6
  %83 = load ptr, ptr %82, align 8, !tbaa !101
  %84 = call i32 %80(ptr noundef %83, i32 noundef 10, ptr noundef @.str.14)
  store i32 %84, ptr %7, align 4, !tbaa !10
  br label %85

85:                                               ; preds = %75, %72
  store i32 3, ptr %11, align 4
  br label %87

86:                                               ; preds = %66
  store i32 0, ptr %11, align 4
  br label %87

87:                                               ; preds = %86, %85
  call void @llvm.lifetime.end.p0(i64 8, ptr %10) #7
  %88 = load i32, ptr %11, align 4
  switch i32 %88, label %104 [
    i32 0, label %89
    i32 3, label %91
  ]

89:                                               ; preds = %87
  br label %90

90:                                               ; preds = %89, %32
  br label %14, !llvm.loop !109

91:                                               ; preds = %87, %14
  %92 = load i32, ptr %7, align 4, !tbaa !10
  %93 = icmp eq i32 %92, -1
  br i1 %93, label %94, label %102

94:                                               ; preds = %91
  %95 = load i64, ptr %5, align 8, !tbaa !38
  %96 = load i32, ptr %4, align 4, !tbaa !10
  %97 = sext i32 %96 to i64
  %98 = icmp eq i64 %95, %97
  br i1 %98, label %99, label %100

99:                                               ; preds = %94
  store i32 0, ptr %7, align 4, !tbaa !10
  br label %101

100:                                              ; preds = %94
  store i32 10, ptr %7, align 4, !tbaa !10
  br label %101

101:                                              ; preds = %100, %99
  br label %102

102:                                              ; preds = %101, %91
  %103 = load i32, ptr %7, align 4, !tbaa !10
  store i32 1, ptr %11, align 4
  call void @llvm.lifetime.end.p0(i64 4, ptr %7) #7
  call void @llvm.lifetime.end.p0(i64 8, ptr %6) #7
  call void @llvm.lifetime.end.p0(i64 8, ptr %5) #7
  ret i32 %103

104:                                              ; preds = %87
  unreachable
}