; Function Attrs: nounwind uwtable
define internal range(i32 0, -1) i32 @scratch_seq_skip(ptr noundef %0, i32 noundef %1) #0 {
  %3 = alloca i64, align 8
  %4 = sext i32 %1 to i64
  %.not45 = icmp eq i32 %1, 0
  br i1 %.not45, label %.loopexit.thread, label %.lr.ph

.lr.ph:                                           ; preds = %2
  %5 = getelementptr inbounds nuw i8, ptr %0, i64 16
  %6 = getelementptr inbounds nuw i8, ptr %0, i64 48
  %7 = getelementptr inbounds nuw i8, ptr %0, i64 24
  %8 = getelementptr inbounds nuw i8, ptr %0, i64 8
  %.pre = load i64, ptr %5, align 8, !tbaa !94
  br label %9

9:                                                ; preds = %.lr.ph, %34
  %10 = phi i64 [ %.pre, %.lr.ph ], [ %35, %34 ]
  %.02948 = phi i64 [ 0, %.lr.ph ], [ %.1, %34 ]
  %.03047 = phi i32 [ -1, %.lr.ph ], [ %.2, %34 ]
  %.03246 = phi i64 [ %4, %.lr.ph ], [ %.133, %34 ]
  %11 = icmp sgt i64 %10, 0
  br i1 %11, label %12, label %18

12:                                               ; preds = %9
  %spec.select = call i64 @llvm.umin.i64(i64 %.03246, i64 %10)
  %13 = load i64, ptr %8, align 8, !tbaa !109
  %14 = add i64 %13, %spec.select
  store i64 %14, ptr %8, align 8, !tbaa !109
  %15 = sub nsw i64 %10, %spec.select
  store i64 %15, ptr %5, align 8, !tbaa !94
  %16 = sub i64 %.03246, %spec.select
  %17 = add i64 %spec.select, %.02948
  br label %34

18:                                               ; preds = %9
  call void @llvm.lifetime.start.p0(i64 8, ptr nonnull %3) #9
  store i64 0, ptr %3, align 8, !tbaa !64
  %19 = load ptr, ptr %6, align 8, !tbaa !75
  %20 = getelementptr inbounds nuw i8, ptr %19, i64 40
  %21 = load ptr, ptr %20, align 8, !tbaa !65
  %22 = load ptr, ptr %0, align 8, !tbaa !76
  %23 = call i32 %21(ptr noundef %19, ptr noundef %22, i64 noundef 4096, ptr noundef nonnull %7, ptr noundef nonnull %3, i32 noundef 1) #9
  %24 = load i64, ptr %3, align 8, !tbaa !64
  %25 = icmp sgt i64 %24, 0
  br i1 %25, label %33, label %26

26:                                               ; preds = %18
  %27 = icmp eq i64 %24, 0
  br i1 %27, label %28, label %.thread

28:                                               ; preds = %26
  %29 = load ptr, ptr %6, align 8, !tbaa !75
  %30 = getelementptr inbounds nuw i8, ptr %29, i64 64
  %31 = load ptr, ptr %30, align 8, !tbaa !66
  %32 = call i32 %31(ptr noundef %29, i32 noundef 10, ptr noundef nonnull @.str.14) #9
  br label %.thread

.thread:                                          ; preds = %28, %26
  %.4.ph = phi i32 [ %23, %26 ], [ %32, %28 ]
  call void @llvm.lifetime.end.p0(i64 8, ptr nonnull %3) #9
  br label %.loopexit

33:                                               ; preds = %18
  store i64 %24, ptr %5, align 8, !tbaa !94
  store i64 0, ptr %8, align 8, !tbaa !109
  call void @llvm.lifetime.end.p0(i64 8, ptr nonnull %3) #9
  br label %34

34:                                               ; preds = %33, %12
  %35 = phi i64 [ %15, %12 ], [ %24, %33 ]
  %.133 = phi i64 [ %16, %12 ], [ %.03246, %33 ]
  %.2 = phi i32 [ %.03047, %12 ], [ %23, %33 ]
  %.1 = phi i64 [ %17, %12 ], [ %.02948, %33 ]
  %.not = icmp eq i64 %.133, 0
  br i1 %.not, label %.loopexit, label %9, !llvm.loop !111

.loopexit:                                        ; preds = %34, %.thread
  %.02941 = phi i64 [ %.02948, %.thread ], [ %.1, %34 ]
  %.131 = phi i32 [ %.4.ph, %.thread ], [ %.2, %34 ]
  %.131.fr = freeze i32 %.131
  %36 = icmp eq i32 %.131.fr, -1
  %37 = icmp eq i64 %.02941, %4
  %. = select i1 %37, i32 0, i32 10
  %spec.select59 = select i1 %36, i32 %., i32 %.131.fr
  br label %.loopexit.thread

.loopexit.thread:                                 ; preds = %.loopexit, %2
  %38 = phi i32 [ 0, %2 ], [ %spec.select59, %.loopexit ]
  ret i32 %38
}